; Function Attrs: nounwind uwtable
define noalias nonnull ptr @l_Lean_Compiler_LCNF_Specialize_expandCodeDecls(ptr noundef %0, ptr noundef %1, ptr readnone captures(none) %2, ptr readnone captures(none) %3, ptr readnone captures(none) %4, ptr readnone captures(none) %5, ptr noundef %6) local_unnamed_addr #0 {
  %8 = getelementptr i8, ptr %0, i64 8
  %.val = load i64, ptr %8, align 8, !tbaa !12
  %9 = ptrtoint ptr %0 to i64
  %10 = and i64 %9, 1
  %.not = icmp eq i64 %10, 0
  br i1 %.not, label %11, label %lean_inc.exit

11:                                               ; preds = %7
  %.val.i = load i32, ptr %0, align 4, !tbaa !8
  %12 = icmp sgt i32 %.val.i, 0
  br i1 %12, label %13, label %15, !prof !11

13:                                               ; preds = %11
  %14 = add nuw i32 %.val.i, 1
  store i32 %14, ptr %0, align 4, !tbaa !8
  br label %lean_inc.exit

15:                                               ; preds = %11
  %.not.i22 = icmp eq i32 %.val.i, 0
  br i1 %.not.i22, label %lean_inc.exit, label %16

16:                                               ; preds = %15
  tail call void @lean_inc_ref_cold(ptr noundef nonnull %0) #4
  br label %lean_inc.exit

lean_inc.exit:                                    ; preds = %16, %15, %13, %7
  %17 = tail call ptr @l_Array_mapMUnsafe_map___at_Lean_Compiler_LCNF_Specialize_expandCodeDecls___spec__1(i64 noundef %.val, i64 noundef 0, ptr noundef nonnull %0)
  %18 = tail call ptr @l_Array_mapMUnsafe_map___at_Lean_Compiler_LCNF_Specialize_expandCodeDecls___spec__2(i64 noundef %.val, i64 noundef 0, ptr noundef nonnull %0)
  %19 = load ptr, ptr @l_Lean_Compiler_LCNF_Specialize_Collector_collect___closed__1, align 8, !tbaa !4
  %20 = tail call ptr @l_Lean_Compiler_LCNF_Specialize_expandCodeDecls_go(ptr noundef %1, ptr noundef %17, ptr noundef %18, ptr noundef nonnull inttoptr (i64 1 to ptr), ptr noundef %19)
  %21 = ptrtoint ptr %18 to i64
  %22 = and i64 %21, 1
  %.not23 = icmp eq i64 %22, 0
  br i1 %.not23, label %23, label %lean_dec.exit19

23:                                               ; preds = %lean_inc.exit
  %24 = load i32, ptr %18, align 4, !tbaa !8
  %25 = icmp sgt i32 %24, 1
  br i1 %25, label %26, label %28, !prof !11

26:                                               ; preds = %23
  %27 = add nsw i32 %24, -1
  store i32 %27, ptr %18, align 4, !tbaa !8
  br label %lean_dec.exit19

28:                                               ; preds = %23
  %.not.i = icmp eq i32 %24, 0
  br i1 %.not.i, label %lean_dec.exit19, label %29

29:                                               ; preds = %28
  tail call void @lean_dec_ref_cold(ptr noundef nonnull %18) #4
  br label %lean_dec.exit19

lean_dec.exit19:                                  ; preds = %29, %28, %26, %lean_inc.exit
  %30 = ptrtoint ptr %17 to i64
  %31 = and i64 %30, 1
  %.not24 = icmp eq i64 %31, 0
  br i1 %.not24, label %32, label %lean_dec.exit

32:                                               ; preds = %lean_dec.exit19
  %33 = load i32, ptr %17, align 4, !tbaa !8
  %34 = icmp sgt i32 %33, 1
  br i1 %34, label %35, label %37, !prof !11

35:                                               ; preds = %32
  %36 = add nsw i32 %33, -1
  store i32 %36, ptr %17, align 4, !tbaa !8
  br label %lean_dec.exit

37:                                               ; preds = %32
  %.not.i20 = icmp eq i32 %33, 0
  br i1 %.not.i20, label %lean_dec.exit, label %38

38:                                               ; preds = %37
  tail call void @lean_dec_ref_cold(ptr noundef nonnull %17) #4
  br label %lean_dec.exit

lean_dec.exit:                                    ; preds = %38, %37, %35, %lean_dec.exit19
  tail call void @lean_inc_heartbeat() #4
  %39 = tail call noalias ptr @mi_malloc_small(i64 noundef 24) #4
  %40 = icmp eq ptr %39, null
  br i1 %40, label %41, label %lean_alloc_ctor.exit

41:                                               ; preds = %lean_dec.exit
  tail call void @lean_internal_panic_out_of_memory() #5
  unreachable

lean_alloc_ctor.exit:                             ; preds = %lean_dec.exit
  %42 = getelementptr inbounds nuw i8, ptr %39, i64 4
  store i32 1, ptr %39, align 4, !tbaa !8
  store i32 131096, ptr %42, align 4
  %43 = getelementptr inbounds nuw i8, ptr %39, i64 8
  store ptr %20, ptr %43, align 8, !tbaa !4
  %44 = getelementptr inbounds nuw i8, ptr %39, i64 16
  store ptr %6, ptr %44, align 8, !tbaa !4
  ret ptr %39
}